target datalayout = "e-m:e-p270:32:32-p271:32:32-p272:64:64-i64:64-i128:128-f80:128-n8:16:32:64-S128"
target triple = "x86_64-pc-linux-gnu"

%"class.tinyxml2::StrPair" = type { i32, ptr, ptr }
%"class.tinyxml2::XMLDocument" = type { %"class.tinyxml2::XMLNode", i8, i8, i32, i32, %"class.tinyxml2::StrPair", i32, ptr, i32, i32, %"class.tinyxml2::DynArray", %"class.tinyxml2::MemPoolT", %"class.tinyxml2::MemPoolT.1", %"class.tinyxml2::MemPoolT.3", %"class.tinyxml2::MemPoolT.5" }
%"class.tinyxml2::XMLNode" = type { ptr, ptr, ptr, %"class.tinyxml2::StrPair", i32, ptr, ptr, ptr, ptr, ptr, ptr }
%"class.tinyxml2::DynArray" = type { ptr, [10 x ptr], i32, i32 }
%"class.tinyxml2::MemPoolT" = type { %"class.tinyxml2::MemPool", %"class.tinyxml2::DynArray.0", ptr, i32, i32, i32, i32 }
%"class.tinyxml2::MemPool" = type { ptr }
%"class.tinyxml2::DynArray.0" = type { ptr, [10 x ptr], i32, i32 }
%"class.tinyxml2::MemPoolT.1" = type { %"class.tinyxml2::MemPool", %"class.tinyxml2::DynArray.2", ptr, i32, i32, i32, i32 }
%"class.tinyxml2::DynArray.2" = type { ptr, [10 x ptr], i32, i32 }
%"class.tinyxml2::MemPoolT.3" = type { %"class.tinyxml2::MemPool", %"class.tinyxml2::DynArray.4", ptr, i32, i32, i32, i32 }
%"class.tinyxml2::DynArray.4" = type { ptr, [10 x ptr], i32, i32 }
%"class.tinyxml2::MemPoolT.5" = type { %"class.tinyxml2::MemPool", %"class.tinyxml2::DynArray.6", ptr, i32, i32, i32, i32 }
%"class.tinyxml2::DynArray.6" = type { ptr, [10 x ptr], i32, i32 }
%"class.tinyxml2::XMLText" = type <{ %"class.tinyxml2::XMLNode", i8, [7 x i8] }>

@.str.21 = private unnamed_addr constant [2 x i8] c"<\00", align 1
@.str.24 = private unnamed_addr constant [4 x i8] c"]]>\00", align 1

; Function Attrs: mustprogress nounwind uwtable
define void @_ZN8tinyxml27StrPair5ResetEv(ptr noundef nonnull align 8 dereferenceable(24) %0) #0 align 2 {
  %2 = alloca ptr, align 8
  store ptr %0, ptr %2, align 8, !tbaa !3
  %3 = load ptr, ptr %2, align 8
  %4 = getelementptr inbounds nuw %"class.tinyxml2::StrPair", ptr %3, i32 0, i32 0
  %5 = load i32, ptr %4, align 8, !tbaa !8
  %6 = and i32 %5, 512
  %7 = icmp ne i32 %6, 0
  br i1 %7, label %8, label %14

8:                                                ; preds = %1
  %9 = getelementptr inbounds nuw %"class.tinyxml2::StrPair", ptr %3, i32 0, i32 1
  %10 = load ptr, ptr %9, align 8, !tbaa !12
  %11 = icmp eq ptr %10, null
  br i1 %11, label %13, label %12

12:                                               ; preds = %8
  call void @_ZdaPv(ptr noundef %10) #17
  br label %13

13:                                               ; preds = %12, %8
  br label %14

14:                                               ; preds = %13, %1
  %15 = getelementptr inbounds nuw %"class.tinyxml2::StrPair", ptr %3, i32 0, i32 0
  store i32 0, ptr %15, align 8, !tbaa !8
  %16 = getelementptr inbounds nuw %"class.tinyxml2::StrPair", ptr %3, i32 0, i32 1
  store ptr null, ptr %16, align 8, !tbaa !12
  %17 = getelementptr inbounds nuw %"class.tinyxml2::StrPair", ptr %3, i32 0, i32 2
  store ptr null, ptr %17, align 8, !tbaa !13
  ret void
}

; Function Attrs: mustprogress nounwind uwtable
define linkonce_odr hidden void @_ZN8tinyxml27StrPair3SetEPcS1_i(ptr noundef nonnull align 8 dereferenceable(24) %0, ptr noundef %1, ptr noundef %2, i32 noundef %3) #0 comdat align 2 {
  %5 = alloca ptr, align 8
  %6 = alloca ptr, align 8
  %7 = alloca ptr, align 8
  %8 = alloca i32, align 4
  store ptr %0, ptr %5, align 8, !tbaa !3
  store ptr %1, ptr %6, align 8, !tbaa !14
  store ptr %2, ptr %7, align 8, !tbaa !14
  store i32 %3, ptr %8, align 4, !tbaa !15
  %9 = load ptr, ptr %5, align 8
  call void @_ZN8tinyxml27StrPair5ResetEv(ptr noundef nonnull align 8 dereferenceable(24) %9)
  %10 = load ptr, ptr %6, align 8, !tbaa !14
  %11 = getelementptr inbounds nuw %"class.tinyxml2::StrPair", ptr %9, i32 0, i32 1
  store ptr %10, ptr %11, align 8, !tbaa !12
  %12 = load ptr, ptr %7, align 8, !tbaa !14
  %13 = getelementptr inbounds nuw %"class.tinyxml2::StrPair", ptr %9, i32 0, i32 2
  store ptr %12, ptr %13, align 8, !tbaa !13
  %14 = load i32, ptr %8, align 4, !tbaa !15
  %15 = or i32 %14, 256
  %16 = getelementptr inbounds nuw %"class.tinyxml2::StrPair", ptr %9, i32 0, i32 0
  store i32 %15, ptr %16, align 8, !tbaa !8
  ret void
}

; Function Attrs: mustprogress nounwind uwtable
define linkonce_odr hidden noundef i32 @_ZNK8tinyxml211XMLDocument14WhitespaceModeEv(ptr noundef nonnull align 8 dereferenceable(776) %0) #0 comdat align 2 {
  %2 = alloca ptr, align 8
  store ptr %0, ptr %2, align 8, !tbaa !56
  %3 = load ptr, ptr %2, align 8
  %4 = getelementptr inbounds nuw %"class.tinyxml2::XMLDocument", ptr %3, i32 0, i32 4
  %5 = load i32, ptr %4, align 8, !tbaa !139
  ret i32 %5
}

; Function Attrs: mustprogress nounwind uwtable
define linkonce_odr hidden noundef zeroext i1 @_ZNK8tinyxml211XMLDocument15ProcessEntitiesEv(ptr noundef nonnull align 8 dereferenceable(776) %0) #0 comdat align 2 {
  %2 = alloca ptr, align 8
  store ptr %0, ptr %2, align 8, !tbaa !56
  %3 = load ptr, ptr %2, align 8
  %4 = getelementptr inbounds nuw %"class.tinyxml2::XMLDocument", ptr %3, i32 0, i32 2
  %5 = load i8, ptr %4, align 1, !tbaa !138, !range !35, !noundef !36
  %6 = trunc i8 %5 to i1
  ret i1 %6
}

; Function Attrs: mustprogress uwtable
define noundef ptr @_ZN8tinyxml27StrPair9ParseTextEPcPKciPi(ptr noundef nonnull align 8 dereferenceable(24) %0, ptr noundef %1, ptr noundef %2, i32 noundef %3, ptr noundef %4) #2 align 2 {
  %6 = alloca ptr, align 8
  %7 = alloca ptr, align 8
  %8 = alloca ptr, align 8
  %9 = alloca ptr, align 8
  %10 = alloca i32, align 4
  %11 = alloca ptr, align 8
  %12 = alloca ptr, align 8
  %13 = alloca i8, align 1
  %14 = alloca i64, align 8
  %15 = alloca i32, align 4
  store ptr %0, ptr %7, align 8, !tbaa !3
  store ptr %1, ptr %8, align 8, !tbaa !14
  store ptr %2, ptr %9, align 8, !tbaa !14
  store i32 %3, ptr %10, align 4, !tbaa !15
  store ptr %4, ptr %11, align 8, !tbaa !18
  %16 = load ptr, ptr %7, align 8
  call void @llvm.lifetime.start.p0(i64 8, ptr %12) #18
  %17 = load ptr, ptr %8, align 8, !tbaa !14
  store ptr %17, ptr %12, align 8, !tbaa !14
  call void @llvm.lifetime.start.p0(i64 1, ptr %13) #18
  %18 = load ptr, ptr %9, align 8, !tbaa !14
  %19 = load i8, ptr %18, align 1, !tbaa !20
  store i8 %19, ptr %13, align 1, !tbaa !20
  call void @llvm.lifetime.start.p0(i64 8, ptr %14) #18
  %20 = load ptr, ptr %9, align 8, !tbaa !14
  %21 = call i64 @strlen(ptr noundef %20) #19
  store i64 %21, ptr %14, align 8, !tbaa !16
  br label %22

22:                                               ; preds = %56, %5
  %23 = load ptr, ptr %8, align 8, !tbaa !14
  %24 = load i8, ptr %23, align 1, !tbaa !20
  %25 = icmp ne i8 %24, 0
  br i1 %25, label %26, label %59

26:                                               ; preds = %22
  %27 = load ptr, ptr %8, align 8, !tbaa !14
  %28 = load i8, ptr %27, align 1, !tbaa !20
  %29 = sext i8 %28 to i32
  %30 = load i8, ptr %13, align 1, !tbaa !20
  %31 = sext i8 %30 to i32
  %32 = icmp eq i32 %29, %31
  br i1 %32, label %33, label %46

33:                                               ; preds = %26
  %34 = load ptr, ptr %8, align 8, !tbaa !14
  %35 = load ptr, ptr %9, align 8, !tbaa !14
  %36 = load i64, ptr %14, align 8, !tbaa !16
  %37 = call i32 @strncmp(ptr noundef %34, ptr noundef %35, i64 noundef %36) #19
  %38 = icmp eq i32 %37, 0
  br i1 %38, label %39, label %46

39:                                               ; preds = %33
  %40 = load ptr, ptr %12, align 8, !tbaa !14
  %41 = load ptr, ptr %8, align 8, !tbaa !14
  %42 = load i32, ptr %10, align 4, !tbaa !15
  call void @_ZN8tinyxml27StrPair3SetEPcS1_i(ptr noundef nonnull align 8 dereferenceable(24) %16, ptr noundef %40, ptr noundef %41, i32 noundef %42)
  %43 = load ptr, ptr %8, align 8, !tbaa !14
  %44 = load i64, ptr %14, align 8, !tbaa !16
  %45 = getelementptr inbounds nuw i8, ptr %43, i64 %44
  store ptr %45, ptr %6, align 8
  store i32 1, ptr %15, align 4
  br label %60

46:                                               ; preds = %33, %26
  %47 = load ptr, ptr %8, align 8, !tbaa !14
  %48 = load i8, ptr %47, align 1, !tbaa !20
  %49 = sext i8 %48 to i32
  %50 = icmp eq i32 %49, 10
  br i1 %50, label %51, label %55

51:                                               ; preds = %46
  %52 = load ptr, ptr %11, align 8, !tbaa !18
  %53 = load i32, ptr %52, align 4, !tbaa !15
  %54 = add nsw i32 %53, 1
  store i32 %54, ptr %52, align 4, !tbaa !15
  br label %55

55:                                               ; preds = %51, %46
  br label %56

56:                                               ; preds = %55
  %57 = load ptr, ptr %8, align 8, !tbaa !14
  %58 = getelementptr inbounds nuw i8, ptr %57, i32 1
  store ptr %58, ptr %8, align 8, !tbaa !14
  br label %22, !llvm.loop !21

59:                                               ; preds = %22
  store ptr null, ptr %6, align 8
  store i32 1, ptr %15, align 4
  br label %60

60:                                               ; preds = %59, %39
  call void @llvm.lifetime.end.p0(i64 8, ptr %14) #18
  call void @llvm.lifetime.end.p0(i64 1, ptr %13) #18
  call void @llvm.lifetime.end.p0(i64 8, ptr %12) #18
  %61 = load ptr, ptr %6, align 8
  ret ptr %61
}

; Function Attrs: mustprogress nounwind uwtable
define linkonce_odr hidden noundef zeroext i1 @_ZNK8tinyxml27XMLText5CDataEv(ptr noundef nonnull align 8 dereferenceable(105) %0) #0 comdat align 2 {
  %2 = alloca ptr, align 8
  store ptr %0, ptr %2, align 8, !tbaa !87
  %3 = load ptr, ptr %2, align 8
  %4 = getelementptr inbounds nuw %"class.tinyxml2::XMLText", ptr %3, i32 0, i32 1
  %5 = load i8, ptr %4, align 8, !tbaa !100, !range !35, !noundef !36
  %6 = trunc i8 %5 to i1
  ret i1 %6
}

; Function Attrs: mustprogress uwtable
define noundef ptr @_ZN8tinyxml27XMLText9ParseDeepEPcPNS_7StrPairEPi(ptr noundef nonnull align 8 dereferenceable(105) %0, ptr noundef %1, ptr noundef %2, ptr noundef %3) unnamed_addr #2 align 2 {
  %5 = alloca ptr, align 8
  %6 = alloca ptr, align 8
  %7 = alloca ptr, align 8
  %8 = alloca ptr, align 8
  %9 = alloca ptr, align 8
  %10 = alloca i32, align 4
  %11 = alloca i32, align 4
  store ptr %0, ptr %6, align 8, !tbaa !87
  store ptr %1, ptr %7, align 8, !tbaa !14
  store ptr %2, ptr %8, align 8, !tbaa !3
  store ptr %3, ptr %9, align 8, !tbaa !18
  %12 = load ptr, ptr %6, align 8
  %13 = call noundef zeroext i1 @_ZNK8tinyxml27XMLText5CDataEv(ptr noundef nonnull align 8 dereferenceable(105) %12)
  br i1 %13, label %14, label %28

14:                                               ; preds = %4
  %15 = getelementptr inbounds nuw %"class.tinyxml2::XMLNode", ptr %12, i32 0, i32 3
  %16 = load ptr, ptr %7, align 8, !tbaa !14
  %17 = load ptr, ptr %9, align 8, !tbaa !18
  %18 = call noundef ptr @_ZN8tinyxml27StrPair9ParseTextEPcPKciPi(ptr noundef nonnull align 8 dereferenceable(24) %15, ptr noundef %16, ptr noundef @.str.24, i32 noundef 2, ptr noundef %17)
  store ptr %18, ptr %7, align 8, !tbaa !14
  %19 = load ptr, ptr %7, align 8, !tbaa !14
  %20 = icmp ne ptr %19, null
  br i1 %20, label %26, label %21

21:                                               ; preds = %14
  %22 = getelementptr inbounds nuw %"class.tinyxml2::XMLNode", ptr %12, i32 0, i32 1
  %23 = load ptr, ptr %22, align 8, !tbaa !113
  %24 = getelementptr inbounds nuw %"class.tinyxml2::XMLNode", ptr %12, i32 0, i32 4
  %25 = load i32, ptr %24, align 8, !tbaa !86
  call void (ptr, i32, i32, ptr, ...) @_ZN8tinyxml211XMLDocument8SetErrorENS_8XMLErrorEiPKcz(ptr noundef nonnull align 8 dereferenceable(776) %23, i32 noundef 9, i32 noundef %25, ptr noundef null)
  br label %26

26:                                               ; preds = %21, %14
  %27 = load ptr, ptr %7, align 8, !tbaa !14
  store ptr %27, ptr %5, align 8
  br label %68

28:                                               ; preds = %4
  call void @llvm.lifetime.start.p0(i64 4, ptr %10) #18
  %29 = getelementptr inbounds nuw %"class.tinyxml2::XMLNode", ptr %12, i32 0, i32 1
  %30 = load ptr, ptr %29, align 8, !tbaa !113
  %31 = call noundef zeroext i1 @_ZNK8tinyxml211XMLDocument15ProcessEntitiesEv(ptr noundef nonnull align 8 dereferenceable(776) %30)
  %32 = select i1 %31, i32 3, i32 2
  store i32 %32, ptr %10, align 4, !tbaa !15
  %33 = getelementptr inbounds nuw %"class.tinyxml2::XMLNode", ptr %12, i32 0, i32 1
  %34 = load ptr, ptr %33, align 8, !tbaa !113
  %35 = call noundef i32 @_ZNK8tinyxml211XMLDocument14WhitespaceModeEv(ptr noundef nonnull align 8 dereferenceable(776) %34)
  %36 = icmp eq i32 %35, 1
  br i1 %36, label %37, label %40

37:                                               ; preds = %28
  %38 = load i32, ptr %10, align 4, !tbaa !15
  %39 = or i32 %38, 4
  store i32 %39, ptr %10, align 4, !tbaa !15
  br label %40

40:                                               ; preds = %37, %28
  %41 = getelementptr inbounds nuw %"class.tinyxml2::XMLNode", ptr %12, i32 0, i32 3
  %42 = load ptr, ptr %7, align 8, !tbaa !14
  %43 = load i32, ptr %10, align 4, !tbaa !15
  %44 = load ptr, ptr %9, align 8, !tbaa !18
  %45 = call noundef ptr @_ZN8tinyxml27StrPair9ParseTextEPcPKciPi(ptr noundef nonnull align 8 dereferenceable(24) %41, ptr noundef %42, ptr noundef @.str.21, i32 noundef %43, ptr noundef %44)
  store ptr %45, ptr %7, align 8, !tbaa !14
  %46 = load ptr, ptr %7, align 8, !tbaa !14
  %47 = icmp ne ptr %46, null
  br i1 %47, label %48, label %55

48:                                               ; preds = %40
  %49 = load ptr, ptr %7, align 8, !tbaa !14
  %50 = load i8, ptr %49, align 1, !tbaa !20
  %51 = icmp ne i8 %50, 0
  br i1 %51, label %52, label %55

52:                                               ; preds = %48
  %53 = load ptr, ptr %7, align 8, !tbaa !14
  %54 = getelementptr inbounds i8, ptr %53, i64 -1
  store ptr %54, ptr %5, align 8
  store i32 1, ptr %11, align 4
  br label %64

55:                                               ; preds = %48, %40
  %56 = load ptr, ptr %7, align 8, !tbaa !14
  %57 = icmp ne ptr %56, null
  br i1 %57, label %63, label %58

58:                                               ; preds = %55
  %59 = getelementptr inbounds nuw %"class.tinyxml2::XMLNode", ptr %12, i32 0, i32 1
  %60 = load ptr, ptr %59, align 8, !tbaa !113
  %61 = getelementptr inbounds nuw %"class.tinyxml2::XMLNode", ptr %12, i32 0, i32 4
  %62 = load i32, ptr %61, align 8, !tbaa !86
  call void (ptr, i32, i32, ptr, ...) @_ZN8tinyxml211XMLDocument8SetErrorENS_8XMLErrorEiPKcz(ptr noundef nonnull align 8 dereferenceable(776) %60, i32 noundef 8, i32 noundef %62, ptr noundef null)
  br label %63

63:                                               ; preds = %58, %55
  store i32 0, ptr %11, align 4
  br label %64

64:                                               ; preds = %63, %52
  call void @llvm.lifetime.end.p0(i64 4, ptr %10) #18
  %65 = load i32, ptr %11, align 4
  switch i32 %65, label %70 [
    i32 0, label %66
    i32 1, label %68
  ]

66:                                               ; preds = %64
  br label %67

67:                                               ; preds = %66
  store ptr null, ptr %5, align 8
  br label %68

68:                                               ; preds = %67, %64, %26
  %69 = load ptr, ptr %5, align 8
  ret ptr %69

70:                                               ; preds = %64
  unreachable
}