; Function Attrs: mustprogress uwtable
define noundef ptr @_ZN8tinyxml27XMLText9ParseDeepEPcPNS_7StrPairEPi(ptr noundef nonnull align 8 captures(none) dereferenceable(105) %0, ptr noundef %1, ptr readnone captures(none) %2, ptr noundef captures(none) %3) unnamed_addr #4 align 2 {
  %5 = getelementptr inbounds nuw i8, ptr %0, i64 104
  %6 = load i8, ptr %5, align 8, !tbaa !73, !range !94, !noundef !95
  %7 = trunc nuw i8 %6 to i1
  br i1 %7, label %8, label %37

8:                                                ; preds = %4
  %9 = getelementptr inbounds nuw i8, ptr %0, i64 24
  %10 = load i8, ptr %1, align 1, !tbaa !12
  %.not21.i = icmp eq i8 %10, 0
  br i1 %.not21.i, label %_ZN8tinyxml27StrPair9ParseTextEPcPKciPi.exit.thread, label %.lr.ph.i

.lr.ph.i:                                         ; preds = %8, %.thread
  %11 = phi i8 [ %29, %.thread ], [ %10, %8 ]
  %.01822.i = phi ptr [ %28, %.thread ], [ %1, %8 ]
  switch i8 %11, label %.thread [
    i8 93, label %sub_1
    i8 10, label %25
  ]

sub_1:                                            ; preds = %.lr.ph.i
  %12 = getelementptr inbounds nuw i8, ptr %.01822.i, i64 1
  %13 = load i8, ptr %12, align 1
  %.not41 = icmp eq i8 %13, 93
  br i1 %.not41, label %.tail, label %.thread

.tail:                                            ; preds = %sub_1
  %14 = getelementptr inbounds nuw i8, ptr %.01822.i, i64 2
  %15 = load i8, ptr %14, align 1
  %16 = icmp eq i8 %15, 62
  br i1 %16, label %17, label %.thread

17:                                               ; preds = %.tail
  %18 = load i32, ptr %9, align 8, !tbaa !3
  %19 = and i32 %18, 512
  %.not.i.i.i = icmp eq i32 %19, 0
  br i1 %.not.i.i.i, label %_ZN8tinyxml27StrPair9ParseTextEPcPKciPi.exit, label %20

20:                                               ; preds = %17
  %21 = getelementptr inbounds nuw i8, ptr %0, i64 32
  %22 = load ptr, ptr %21, align 8, !tbaa !10
  %23 = icmp eq ptr %22, null
  br i1 %23, label %_ZN8tinyxml27StrPair9ParseTextEPcPKciPi.exit, label %24

24:                                               ; preds = %20
  tail call void @_ZdaPv(ptr noundef nonnull %22) #30
  br label %_ZN8tinyxml27StrPair9ParseTextEPcPKciPi.exit

25:                                               ; preds = %.lr.ph.i
  %26 = load i32, ptr %3, align 4, !tbaa !13
  %27 = add nsw i32 %26, 1
  store i32 %27, ptr %3, align 4, !tbaa !13
  br label %.thread

.thread:                                          ; preds = %sub_1, %.lr.ph.i, %.tail, %25
  %28 = getelementptr inbounds nuw i8, ptr %.01822.i, i64 1
  %29 = load i8, ptr %28, align 1, !tbaa !12
  %.not.i = icmp eq i8 %29, 0
  br i1 %.not.i, label %_ZN8tinyxml27StrPair9ParseTextEPcPKciPi.exit.thread, label %.lr.ph.i, !llvm.loop !14

_ZN8tinyxml27StrPair9ParseTextEPcPKciPi.exit:     ; preds = %17, %20, %24
  %30 = getelementptr inbounds nuw i8, ptr %0, i64 32
  store ptr %1, ptr %30, align 8, !tbaa !10
  %31 = getelementptr inbounds nuw i8, ptr %0, i64 40
  store ptr %.01822.i, ptr %31, align 8, !tbaa !11
  store i32 258, ptr %9, align 8, !tbaa !3
  %32 = getelementptr inbounds nuw i8, ptr %.01822.i, i64 3
  br label %70

_ZN8tinyxml27StrPair9ParseTextEPcPKciPi.exit.thread: ; preds = %.thread, %8
  %33 = getelementptr inbounds nuw i8, ptr %0, i64 8
  %34 = load ptr, ptr %33, align 8, !tbaa !71
  %35 = getelementptr inbounds nuw i8, ptr %0, i64 48
  %36 = load i32, ptr %35, align 8, !tbaa !70
  tail call void (ptr, i32, i32, ptr, ...) @_ZN8tinyxml211XMLDocument8SetErrorENS_8XMLErrorEiPKcz(ptr noundef nonnull align 8 dereferenceable(776) %34, i32 noundef 9, i32 noundef %36, ptr noundef null)
  br label %70

37:                                               ; preds = %4
  %38 = getelementptr inbounds nuw i8, ptr %0, i64 8
  %39 = load ptr, ptr %38, align 8, !tbaa !71
  %40 = getelementptr inbounds nuw i8, ptr %39, i64 105
  %41 = load i8, ptr %40, align 1, !tbaa !96, !range !94, !noundef !95
  %42 = trunc nuw i8 %41 to i1
  %43 = select i1 %42, i32 3, i32 2
  %44 = getelementptr inbounds nuw i8, ptr %39, i64 112
  %45 = load i32, ptr %44, align 8, !tbaa !97
  %46 = icmp eq i32 %45, 1
  %47 = or disjoint i32 %43, 4
  %spec.select = select i1 %46, i32 %47, i32 %43
  %48 = getelementptr inbounds nuw i8, ptr %0, i64 24
  %49 = load i8, ptr %1, align 1, !tbaa !12
  %.not21.i20 = icmp eq i8 %49, 0
  br i1 %.not21.i20, label %.critedge, label %.lr.ph.i21

.lr.ph.i21:                                       ; preds = %37, %.thread31
  %lhsc = phi i8 [ %62, %.thread31 ], [ %49, %37 ]
  %.01822.i22 = phi ptr [ %61, %.thread31 ], [ %1, %37 ]
  switch i8 %lhsc, label %.thread31 [
    i8 60, label %50
    i8 10, label %58
  ]

50:                                               ; preds = %.lr.ph.i21
  %51 = load i32, ptr %48, align 8, !tbaa !3
  %52 = and i32 %51, 512
  %.not.i.i.i25 = icmp eq i32 %52, 0
  br i1 %.not.i.i.i25, label %_ZN8tinyxml27StrPair9ParseTextEPcPKciPi.exit27, label %53

53:                                               ; preds = %50
  %54 = getelementptr inbounds nuw i8, ptr %0, i64 32
  %55 = load ptr, ptr %54, align 8, !tbaa !10
  %56 = icmp eq ptr %55, null
  br i1 %56, label %_ZN8tinyxml27StrPair9ParseTextEPcPKciPi.exit27, label %57

57:                                               ; preds = %53
  tail call void @_ZdaPv(ptr noundef nonnull %55) #30
  br label %_ZN8tinyxml27StrPair9ParseTextEPcPKciPi.exit27

58:                                               ; preds = %.lr.ph.i21
  %59 = load i32, ptr %3, align 4, !tbaa !13
  %60 = add nsw i32 %59, 1
  store i32 %60, ptr %3, align 4, !tbaa !13
  br label %.thread31

.thread31:                                        ; preds = %.lr.ph.i21, %58
  %61 = getelementptr inbounds nuw i8, ptr %.01822.i22, i64 1
  %62 = load i8, ptr %61, align 1, !tbaa !12
  %.not.i23 = icmp eq i8 %62, 0
  br i1 %.not.i23, label %.critedge, label %.lr.ph.i21, !llvm.loop !14

_ZN8tinyxml27StrPair9ParseTextEPcPKciPi.exit27:   ; preds = %50, %53, %57
  %63 = getelementptr inbounds nuw i8, ptr %0, i64 32
  store ptr %1, ptr %63, align 8, !tbaa !10
  %64 = getelementptr inbounds nuw i8, ptr %0, i64 40
  store ptr %.01822.i22, ptr %64, align 8, !tbaa !11
  %65 = or disjoint i32 %spec.select, 256
  store i32 %65, ptr %48, align 8, !tbaa !3
  %66 = getelementptr inbounds nuw i8, ptr %.01822.i22, i64 1
  %67 = load i8, ptr %66, align 1, !tbaa !12
  %.not17 = icmp eq i8 %67, 0
  %spec.select38 = select i1 %.not17, ptr null, ptr %.01822.i22
  br label %70

.critedge:                                        ; preds = %.thread31, %37
  %68 = getelementptr inbounds nuw i8, ptr %0, i64 48
  %69 = load i32, ptr %68, align 8, !tbaa !70
  tail call void (ptr, i32, i32, ptr, ...) @_ZN8tinyxml211XMLDocument8SetErrorENS_8XMLErrorEiPKcz(ptr noundef nonnull align 8 dereferenceable(776) %39, i32 noundef 8, i32 noundef %69, ptr noundef null)
  br label %70

70:                                               ; preds = %_ZN8tinyxml27StrPair9ParseTextEPcPKciPi.exit, %_ZN8tinyxml27StrPair9ParseTextEPcPKciPi.exit27, %.critedge, %_ZN8tinyxml27StrPair9ParseTextEPcPKciPi.exit.thread
  %.015 = phi ptr [ null, %_ZN8tinyxml27StrPair9ParseTextEPcPKciPi.exit.thread ], [ %32, %_ZN8tinyxml27StrPair9ParseTextEPcPKciPi.exit ], [ null, %.critedge ], [ %spec.select38, %_ZN8tinyxml27StrPair9ParseTextEPcPKciPi.exit27 ]
  ret ptr %.015
}